; Function Attrs: nounwind uwtable
define ptr @l___private_Std_Tactic_BVDecide_LRAT_Internal_Formula_RupAddResult_0__Std_Tactic_BVDecide_LRAT_Internal_DefaultFormula_confirmRupHint_match__3_splitter___rarg(ptr noundef %0, ptr noundef %1, ptr noundef %2, ptr noundef %3) local_unnamed_addr #0 {
  %5 = ptrtoint ptr %0 to i64
  %6 = and i64 %5, 1
  %.not.i30 = icmp eq i64 %6, 0
  br i1 %.not.i30, label %10, label %7

7:                                                ; preds = %4
  %8 = lshr i64 %5, 1
  %9 = trunc i64 %8 to i32
  br label %lean_obj_tag.exit

10:                                               ; preds = %4
  %11 = getelementptr i8, ptr %0, i64 4
  %.val.i = load i32, ptr %11, align 4
  %12 = lshr i32 %.val.i, 24
  br label %lean_obj_tag.exit

lean_obj_tag.exit:                                ; preds = %7, %10
  %.0.i = phi i32 [ %9, %7 ], [ %12, %10 ]
  %13 = icmp eq i32 %.0.i, 0
  br i1 %13, label %14, label %32

14:                                               ; preds = %lean_obj_tag.exit
  %15 = ptrtoint ptr %1 to i64
  %16 = and i64 %15, 1
  %.not50 = icmp eq i64 %16, 0
  br i1 %.not50, label %17, label %lean_dec.exit23

17:                                               ; preds = %14
  %18 = load i32, ptr %1, align 4, !tbaa !8
  %19 = icmp sgt i32 %18, 1
  br i1 %19, label %20, label %22, !prof !11

20:                                               ; preds = %17
  %21 = add nsw i32 %18, -1
  store i32 %21, ptr %1, align 4, !tbaa !8
  br label %lean_dec.exit23

22:                                               ; preds = %17
  %.not.i = icmp eq i32 %18, 0
  br i1 %.not.i, label %lean_dec.exit23, label %23

23:                                               ; preds = %22
  tail call void @lean_dec_ref_cold(ptr noundef nonnull %1) #3
  br label %lean_dec.exit23

lean_dec.exit23:                                  ; preds = %23, %22, %20, %14
  %24 = ptrtoint ptr %3 to i64
  %25 = and i64 %24, 1
  %.not51 = icmp eq i64 %25, 0
  br i1 %.not51, label %26, label %lean_inc.exit20

26:                                               ; preds = %lean_dec.exit23
  %.val.i31 = load i32, ptr %3, align 4, !tbaa !8
  %27 = icmp sgt i32 %.val.i31, 0
  br i1 %27, label %28, label %30, !prof !11

28:                                               ; preds = %26
  %29 = add nuw i32 %.val.i31, 1
  store i32 %29, ptr %3, align 4, !tbaa !8
  br label %lean_inc.exit20

30:                                               ; preds = %26
  %.not.i32 = icmp eq i32 %.val.i31, 0
  br i1 %.not.i32, label %lean_inc.exit20, label %31

31:                                               ; preds = %30
  tail call void @lean_inc_ref_cold(ptr noundef nonnull %3) #3
  br label %lean_inc.exit20

32:                                               ; preds = %lean_obj_tag.exit
  %33 = getelementptr inbounds nuw i8, ptr %0, i64 8
  %34 = load ptr, ptr %33, align 8, !tbaa !4
  %35 = ptrtoint ptr %34 to i64
  %36 = and i64 %35, 1
  %.not = icmp eq i64 %36, 0
  br i1 %.not, label %37, label %lean_inc.exit19

37:                                               ; preds = %32
  %.val.i33 = load i32, ptr %34, align 4, !tbaa !8
  %38 = icmp sgt i32 %.val.i33, 0
  br i1 %38, label %39, label %41, !prof !11

39:                                               ; preds = %37
  %40 = add nuw i32 %.val.i33, 1
  store i32 %40, ptr %34, align 4, !tbaa !8
  br label %lean_inc.exit19

41:                                               ; preds = %37
  %.not.i34 = icmp eq i32 %.val.i33, 0
  br i1 %.not.i34, label %lean_inc.exit19, label %42

42:                                               ; preds = %41
  tail call void @lean_inc_ref_cold(ptr noundef nonnull %34) #3
  br label %lean_inc.exit19

lean_inc.exit19:                                  ; preds = %42, %41, %39, %32
  br i1 %.not.i30, label %43, label %lean_dec.exit22

43:                                               ; preds = %lean_inc.exit19
  %44 = load i32, ptr %0, align 4, !tbaa !8
  %45 = icmp sgt i32 %44, 1
  br i1 %45, label %46, label %48, !prof !11

46:                                               ; preds = %43
  %47 = add nsw i32 %44, -1
  store i32 %47, ptr %0, align 4, !tbaa !8
  br label %lean_dec.exit22

48:                                               ; preds = %43
  %.not.i24 = icmp eq i32 %44, 0
  br i1 %.not.i24, label %lean_dec.exit22, label %49

49:                                               ; preds = %48
  tail call void @lean_dec_ref_cold(ptr noundef nonnull %0) #3
  br label %lean_dec.exit22

lean_dec.exit22:                                  ; preds = %49, %48, %46, %lean_inc.exit19
  br i1 %.not, label %53, label %50

50:                                               ; preds = %lean_dec.exit22
  %51 = lshr i64 %35, 1
  %52 = trunc i64 %51 to i32
  br label %lean_obj_tag.exit39

53:                                               ; preds = %lean_dec.exit22
  %54 = getelementptr i8, ptr %34, i64 4
  %.val.i38 = load i32, ptr %54, align 4
  %55 = lshr i32 %.val.i38, 24
  br label %lean_obj_tag.exit39

lean_obj_tag.exit39:                              ; preds = %50, %53
  %.0.i37 = phi i32 [ %52, %50 ], [ %55, %53 ]
  %56 = icmp eq i32 %.0.i37, 0
  br i1 %56, label %57, label %75

57:                                               ; preds = %lean_obj_tag.exit39
  %58 = ptrtoint ptr %1 to i64
  %59 = and i64 %58, 1
  %.not48 = icmp eq i64 %59, 0
  br i1 %.not48, label %60, label %lean_dec.exit21

60:                                               ; preds = %57
  %61 = load i32, ptr %1, align 4, !tbaa !8
  %62 = icmp sgt i32 %61, 1
  br i1 %62, label %63, label %65, !prof !11

63:                                               ; preds = %60
  %64 = add nsw i32 %61, -1
  store i32 %64, ptr %1, align 4, !tbaa !8
  br label %lean_dec.exit21

65:                                               ; preds = %60
  %.not.i26 = icmp eq i32 %61, 0
  br i1 %.not.i26, label %lean_dec.exit21, label %66

66:                                               ; preds = %65
  tail call void @lean_dec_ref_cold(ptr noundef nonnull %1) #3
  br label %lean_dec.exit21

lean_dec.exit21:                                  ; preds = %66, %65, %63, %57
  %67 = ptrtoint ptr %2 to i64
  %68 = and i64 %67, 1
  %.not49 = icmp eq i64 %68, 0
  br i1 %.not49, label %69, label %lean_inc.exit20

69:                                               ; preds = %lean_dec.exit21
  %.val.i40 = load i32, ptr %2, align 4, !tbaa !8
  %70 = icmp sgt i32 %.val.i40, 0
  br i1 %70, label %71, label %73, !prof !11

71:                                               ; preds = %69
  %72 = add nuw i32 %.val.i40, 1
  store i32 %72, ptr %2, align 4, !tbaa !8
  br label %lean_inc.exit20

73:                                               ; preds = %69
  %.not.i41 = icmp eq i32 %.val.i40, 0
  br i1 %.not.i41, label %lean_inc.exit20, label %74

74:                                               ; preds = %73
  tail call void @lean_inc_ref_cold(ptr noundef nonnull %2) #3
  br label %lean_inc.exit20

75:                                               ; preds = %lean_obj_tag.exit39
  %76 = getelementptr inbounds nuw i8, ptr %34, i64 8
  %77 = load ptr, ptr %76, align 8, !tbaa !4
  %78 = ptrtoint ptr %77 to i64
  %79 = and i64 %78, 1
  %.not47 = icmp eq i64 %79, 0
  br i1 %.not47, label %80, label %lean_inc.exit

80:                                               ; preds = %75
  %.val.i43 = load i32, ptr %77, align 4, !tbaa !8
  %81 = icmp sgt i32 %.val.i43, 0
  br i1 %81, label %82, label %84, !prof !11

82:                                               ; preds = %80
  %83 = add nuw i32 %.val.i43, 1
  store i32 %83, ptr %77, align 4, !tbaa !8
  br label %lean_inc.exit

84:                                               ; preds = %80
  %.not.i44 = icmp eq i32 %.val.i43, 0
  br i1 %.not.i44, label %lean_inc.exit, label %85

85:                                               ; preds = %84
  tail call void @lean_inc_ref_cold(ptr noundef nonnull %77) #3
  br label %lean_inc.exit

lean_inc.exit:                                    ; preds = %85, %84, %82, %75
  br i1 %.not, label %86, label %lean_dec.exit

86:                                               ; preds = %lean_inc.exit
  %87 = load i32, ptr %34, align 4, !tbaa !8
  %88 = icmp sgt i32 %87, 1
  br i1 %88, label %89, label %91, !prof !11

89:                                               ; preds = %86
  %90 = add nsw i32 %87, -1
  store i32 %90, ptr %34, align 4, !tbaa !8
  br label %lean_dec.exit

91:                                               ; preds = %86
  %.not.i28 = icmp eq i32 %87, 0
  br i1 %.not.i28, label %lean_dec.exit, label %92

92:                                               ; preds = %91
  tail call void @lean_dec_ref_cold(ptr noundef nonnull %34) #3
  br label %lean_dec.exit

lean_dec.exit:                                    ; preds = %92, %91, %89, %lean_inc.exit
  %93 = tail call ptr @lean_apply_1(ptr noundef %1, ptr noundef %77) #3
  br label %lean_inc.exit20

lean_inc.exit20:                                  ; preds = %lean_dec.exit21, %71, %73, %74, %lean_dec.exit23, %28, %30, %31, %lean_dec.exit
  %.0 = phi ptr [ %93, %lean_dec.exit ], [ %3, %31 ], [ %3, %30 ], [ %3, %28 ], [ %3, %lean_dec.exit23 ], [ %2, %74 ], [ %2, %73 ], [ %2, %71 ], [ %2, %lean_dec.exit21 ]
  ret ptr %.0
}